target datalayout = "e-m:e-p270:32:32-p271:32:32-p272:64:64-i64:64-i128:128-f80:128-n8:16:32:64-S128"
target triple = "x86_64-pc-linux-gnu"

%struct.FuncState = type { ptr, ptr, ptr, ptr, ptr, ptr, i32, i32, i32, i32, i32, i32, i16, i8, [60 x %struct.upvaldesc], [200 x i16] }
%struct.upvaldesc = type { i8, i8 }
%struct.LexState = type { i32, i32, i32, %struct.Token, %struct.Token, ptr, ptr, ptr, ptr, ptr, i8 }
%struct.Token = type { i32, %union.SemInfo }
%union.SemInfo = type { double }
%struct.expdesc = type { i32, %union.anon, i32, i32 }
%union.anon = type { double }
%struct.anon = type { i32, i32 }

; Function Attrs: nounwind uwtable
define internal void @freereg(ptr noundef %0, i32 noundef %1) #0 {
  %3 = alloca ptr, align 8
  %4 = alloca i32, align 4
  store ptr %0, ptr %3, align 8, !tbaa !4
  store i32 %1, ptr %4, align 4, !tbaa !9
  %5 = load i32, ptr %4, align 4, !tbaa !9
  %6 = and i32 %5, 256
  %7 = icmp ne i32 %6, 0
  br i1 %7, label %20, label %8

8:                                                ; preds = %2
  %9 = load i32, ptr %4, align 4, !tbaa !9
  %10 = load ptr, ptr %3, align 8, !tbaa !4
  %11 = getelementptr inbounds nuw %struct.FuncState, ptr %10, i32 0, i32 13
  %12 = load i8, ptr %11, align 2, !tbaa !20
  %13 = zext i8 %12 to i32
  %14 = icmp sge i32 %9, %13
  br i1 %14, label %15, label %20

15:                                               ; preds = %8
  %16 = load ptr, ptr %3, align 8, !tbaa !4
  %17 = getelementptr inbounds nuw %struct.FuncState, ptr %16, i32 0, i32 9
  %18 = load i32, ptr %17, align 4, !tbaa !42
  %19 = add nsw i32 %18, -1
  store i32 %19, ptr %17, align 4, !tbaa !42
  br label %20

20:                                               ; preds = %15, %8, %2
  ret void
}

; Function Attrs: nounwind uwtable
define hidden i32 @luaK_codeABx(ptr noundef %0, i32 noundef %1, i32 noundef %2, i32 noundef %3) #0 {
  %5 = alloca ptr, align 8
  %6 = alloca i32, align 4
  %7 = alloca i32, align 4
  %8 = alloca i32, align 4
  store ptr %0, ptr %5, align 8, !tbaa !4
  store i32 %1, ptr %6, align 4, !tbaa !9
  store i32 %2, ptr %7, align 4, !tbaa !9
  store i32 %3, ptr %8, align 4, !tbaa !9
  %9 = load ptr, ptr %5, align 8, !tbaa !4
  %10 = load i32, ptr %6, align 4, !tbaa !9
  %11 = shl i32 %10, 0
  %12 = load i32, ptr %7, align 4, !tbaa !9
  %13 = shl i32 %12, 6
  %14 = or i32 %11, %13
  %15 = load i32, ptr %8, align 4, !tbaa !9
  %16 = shl i32 %15, 14
  %17 = or i32 %14, %16
  %18 = load ptr, ptr %5, align 8, !tbaa !4
  %19 = getelementptr inbounds nuw %struct.FuncState, ptr %18, i32 0, i32 3
  %20 = load ptr, ptr %19, align 8, !tbaa !32
  %21 = getelementptr inbounds nuw %struct.LexState, ptr %20, i32 0, i32 2
  %22 = load i32, ptr %21, align 8, !tbaa !33
  %23 = call i32 @luaK_code(ptr noundef %9, i32 noundef %17, i32 noundef %22)
  ret i32 %23
}

; Function Attrs: nounwind uwtable
define hidden i32 @luaK_codeABC(ptr noundef %0, i32 noundef %1, i32 noundef %2, i32 noundef %3, i32 noundef %4) #0 {
  %6 = alloca ptr, align 8
  %7 = alloca i32, align 4
  %8 = alloca i32, align 4
  %9 = alloca i32, align 4
  %10 = alloca i32, align 4
  store ptr %0, ptr %6, align 8, !tbaa !4
  store i32 %1, ptr %7, align 4, !tbaa !9
  store i32 %2, ptr %8, align 4, !tbaa !9
  store i32 %3, ptr %9, align 4, !tbaa !9
  store i32 %4, ptr %10, align 4, !tbaa !9
  %11 = load ptr, ptr %6, align 8, !tbaa !4
  %12 = load i32, ptr %7, align 4, !tbaa !9
  %13 = shl i32 %12, 0
  %14 = load i32, ptr %8, align 4, !tbaa !9
  %15 = shl i32 %14, 6
  %16 = or i32 %13, %15
  %17 = load i32, ptr %9, align 4, !tbaa !9
  %18 = shl i32 %17, 23
  %19 = or i32 %16, %18
  %20 = load i32, ptr %10, align 4, !tbaa !9
  %21 = shl i32 %20, 14
  %22 = or i32 %19, %21
  %23 = load ptr, ptr %6, align 8, !tbaa !4
  %24 = getelementptr inbounds nuw %struct.FuncState, ptr %23, i32 0, i32 3
  %25 = load ptr, ptr %24, align 8, !tbaa !32
  %26 = getelementptr inbounds nuw %struct.LexState, ptr %25, i32 0, i32 2
  %27 = load i32, ptr %26, align 8, !tbaa !33
  %28 = call i32 @luaK_code(ptr noundef %11, i32 noundef %22, i32 noundef %27)
  ret i32 %28
}

; Function Attrs: nounwind uwtable
define internal void @freeexp(ptr noundef %0, ptr noundef %1) #0 {
  %3 = alloca ptr, align 8
  %4 = alloca ptr, align 8
  store ptr %0, ptr %3, align 8, !tbaa !4
  store ptr %1, ptr %4, align 8, !tbaa !60
  %5 = load ptr, ptr %4, align 8, !tbaa !60
  %6 = getelementptr inbounds nuw %struct.expdesc, ptr %5, i32 0, i32 0
  %7 = load i32, ptr %6, align 8, !tbaa !62
  %8 = icmp eq i32 %7, 12
  br i1 %8, label %9, label %15

9:                                                ; preds = %2
  %10 = load ptr, ptr %3, align 8, !tbaa !4
  %11 = load ptr, ptr %4, align 8, !tbaa !60
  %12 = getelementptr inbounds nuw %struct.expdesc, ptr %11, i32 0, i32 1
  %13 = getelementptr inbounds nuw %struct.anon, ptr %12, i32 0, i32 0
  %14 = load i32, ptr %13, align 8, !tbaa !46
  call void @freereg(ptr noundef %10, i32 noundef %14)
  br label %15

15:                                               ; preds = %9, %2
  ret void
}

; Function Attrs: nounwind uwtable
define hidden void @luaK_storevar(ptr noundef %0, ptr noundef %1, ptr noundef %2) #0 {
  %4 = alloca ptr, align 8
  %5 = alloca ptr, align 8
  %6 = alloca ptr, align 8
  %7 = alloca i32, align 4
  %8 = alloca i32, align 4
  %9 = alloca i32, align 4
  store ptr %0, ptr %4, align 8, !tbaa !4
  store ptr %1, ptr %5, align 8, !tbaa !60
  store ptr %2, ptr %6, align 8, !tbaa !60
  %10 = load ptr, ptr %5, align 8, !tbaa !60
  %11 = getelementptr inbounds nuw %struct.expdesc, ptr %10, i32 0, i32 0
  %12 = load i32, ptr %11, align 8, !tbaa !62
  switch i32 %12, label %59 [
    i32 6, label %13
    i32 7, label %22
    i32 8, label %33
    i32 9, label %44
  ]

13:                                               ; preds = %3
  %14 = load ptr, ptr %4, align 8, !tbaa !4
  %15 = load ptr, ptr %6, align 8, !tbaa !60
  call void @freeexp(ptr noundef %14, ptr noundef %15)
  %16 = load ptr, ptr %4, align 8, !tbaa !4
  %17 = load ptr, ptr %6, align 8, !tbaa !60
  %18 = load ptr, ptr %5, align 8, !tbaa !60
  %19 = getelementptr inbounds nuw %struct.expdesc, ptr %18, i32 0, i32 1
  %20 = getelementptr inbounds nuw %struct.anon, ptr %19, i32 0, i32 0
  %21 = load i32, ptr %20, align 8, !tbaa !46
  call void @exp2reg(ptr noundef %16, ptr noundef %17, i32 noundef %21)
  br label %63

22:                                               ; preds = %3
  call void @llvm.lifetime.start.p0(i64 4, ptr %7) #6
  %23 = load ptr, ptr %4, align 8, !tbaa !4
  %24 = load ptr, ptr %6, align 8, !tbaa !60
  %25 = call i32 @luaK_exp2anyreg(ptr noundef %23, ptr noundef %24)
  store i32 %25, ptr %7, align 4, !tbaa !9
  %26 = load ptr, ptr %4, align 8, !tbaa !4
  %27 = load i32, ptr %7, align 4, !tbaa !9
  %28 = load ptr, ptr %5, align 8, !tbaa !60
  %29 = getelementptr inbounds nuw %struct.expdesc, ptr %28, i32 0, i32 1
  %30 = getelementptr inbounds nuw %struct.anon, ptr %29, i32 0, i32 0
  %31 = load i32, ptr %30, align 8, !tbaa !46
  %32 = call i32 @luaK_codeABC(ptr noundef %26, i32 noundef 8, i32 noundef %27, i32 noundef %31, i32 noundef 0)
  call void @llvm.lifetime.end.p0(i64 4, ptr %7) #6
  br label %60

33:                                               ; preds = %3
  call void @llvm.lifetime.start.p0(i64 4, ptr %8) #6
  %34 = load ptr, ptr %4, align 8, !tbaa !4
  %35 = load ptr, ptr %6, align 8, !tbaa !60
  %36 = call i32 @luaK_exp2anyreg(ptr noundef %34, ptr noundef %35)
  store i32 %36, ptr %8, align 4, !tbaa !9
  %37 = load ptr, ptr %4, align 8, !tbaa !4
  %38 = load i32, ptr %8, align 4, !tbaa !9
  %39 = load ptr, ptr %5, align 8, !tbaa !60
  %40 = getelementptr inbounds nuw %struct.expdesc, ptr %39, i32 0, i32 1
  %41 = getelementptr inbounds nuw %struct.anon, ptr %40, i32 0, i32 0
  %42 = load i32, ptr %41, align 8, !tbaa !46
  %43 = call i32 @luaK_codeABx(ptr noundef %37, i32 noundef 7, i32 noundef %38, i32 noundef %42)
  call void @llvm.lifetime.end.p0(i64 4, ptr %8) #6
  br label %60

44:                                               ; preds = %3
  call void @llvm.lifetime.start.p0(i64 4, ptr %9) #6
  %45 = load ptr, ptr %4, align 8, !tbaa !4
  %46 = load ptr, ptr %6, align 8, !tbaa !60
  %47 = call i32 @luaK_exp2RK(ptr noundef %45, ptr noundef %46)
  store i32 %47, ptr %9, align 4, !tbaa !9
  %48 = load ptr, ptr %4, align 8, !tbaa !4
  %49 = load ptr, ptr %5, align 8, !tbaa !60
  %50 = getelementptr inbounds nuw %struct.expdesc, ptr %49, i32 0, i32 1
  %51 = getelementptr inbounds nuw %struct.anon, ptr %50, i32 0, i32 0
  %52 = load i32, ptr %51, align 8, !tbaa !46
  %53 = load ptr, ptr %5, align 8, !tbaa !60
  %54 = getelementptr inbounds nuw %struct.expdesc, ptr %53, i32 0, i32 1
  %55 = getelementptr inbounds nuw %struct.anon, ptr %54, i32 0, i32 1
  %56 = load i32, ptr %55, align 4, !tbaa !46
  %57 = load i32, ptr %9, align 4, !tbaa !9
  %58 = call i32 @luaK_codeABC(ptr noundef %48, i32 noundef 9, i32 noundef %52, i32 noundef %56, i32 noundef %57)
  call void @llvm.lifetime.end.p0(i64 4, ptr %9) #6
  br label %60

59:                                               ; preds = %3
  br label %60

60:                                               ; preds = %59, %44, %33, %22
  %61 = load ptr, ptr %4, align 8, !tbaa !4
  %62 = load ptr, ptr %6, align 8, !tbaa !60
  call void @freeexp(ptr noundef %61, ptr noundef %62)
  br label %63

63:                                               ; preds = %60, %13
  ret void
}