; Function Attrs: nounwind uwtable
define hidden void @luaK_storevar(ptr noundef captures(none) %0, ptr noundef readonly captures(none) %1, ptr noundef captures(none) %2) local_unnamed_addr #0 {
  %4 = load i32, ptr %1, align 8, !tbaa !51
  switch i32 %4, label %55 [
    i32 6, label %5
    i32 7, label %22
    i32 8, label %30
    i32 9, label %38
  ]

5:                                                ; preds = %3
  %6 = load i32, ptr %2, align 8, !tbaa !51
  %7 = icmp eq i32 %6, 12
  br i1 %7, label %8, label %freeexp.exit

8:                                                ; preds = %5
  %9 = getelementptr inbounds nuw i8, ptr %2, i64 8
  %10 = load i32, ptr %9, align 8, !tbaa !39
  %11 = and i32 %10, 256
  %.not.i.i = icmp eq i32 %11, 0
  br i1 %.not.i.i, label %12, label %freeexp.exit

12:                                               ; preds = %8
  %13 = getelementptr inbounds nuw i8, ptr %0, i64 74
  %14 = load i8, ptr %13, align 2, !tbaa !18
  %15 = zext i8 %14 to i32
  %.not3.i.i = icmp slt i32 %10, %15
  br i1 %.not3.i.i, label %freeexp.exit, label %16

16:                                               ; preds = %12
  %17 = getelementptr inbounds nuw i8, ptr %0, i64 60
  %18 = load i32, ptr %17, align 4, !tbaa !41
  %19 = add nsw i32 %18, -1
  store i32 %19, ptr %17, align 4, !tbaa !41
  br label %freeexp.exit

freeexp.exit:                                     ; preds = %5, %8, %12, %16
  %20 = getelementptr inbounds nuw i8, ptr %1, i64 8
  %21 = load i32, ptr %20, align 8, !tbaa !39
  tail call fastcc void @exp2reg(ptr noundef %0, ptr noundef nonnull %2, i32 noundef %21)
  br label %freeexp.exit25

22:                                               ; preds = %3
  %23 = tail call i32 @luaK_exp2anyreg(ptr noundef %0, ptr noundef %2)
  %24 = getelementptr inbounds nuw i8, ptr %1, i64 8
  %25 = load i32, ptr %24, align 8, !tbaa !39
  %26 = shl i32 %23, 6
  %27 = shl i32 %25, 23
  %28 = or i32 %26, %27
  %29 = or disjoint i32 %28, 8
  br label %.sink.split

30:                                               ; preds = %3
  %31 = tail call i32 @luaK_exp2anyreg(ptr noundef %0, ptr noundef %2)
  %32 = getelementptr inbounds nuw i8, ptr %1, i64 8
  %33 = load i32, ptr %32, align 8, !tbaa !39
  %34 = shl i32 %31, 6
  %35 = shl i32 %33, 14
  %36 = or i32 %34, %35
  %37 = or disjoint i32 %36, 7
  br label %.sink.split

38:                                               ; preds = %3
  %39 = tail call i32 @luaK_exp2RK(ptr noundef %0, ptr noundef %2)
  %40 = getelementptr inbounds nuw i8, ptr %1, i64 8
  %41 = load i32, ptr %40, align 8, !tbaa !39
  %42 = getelementptr inbounds nuw i8, ptr %1, i64 12
  %43 = load i32, ptr %42, align 4, !tbaa !39
  %44 = shl i32 %41, 6
  %45 = shl i32 %43, 23
  %46 = shl i32 %39, 14
  %47 = or i32 %46, %44
  %48 = or i32 %47, %45
  %49 = or disjoint i32 %48, 9
  br label %.sink.split

.sink.split:                                      ; preds = %22, %30, %38
  %.sink = phi i32 [ %49, %38 ], [ %37, %30 ], [ %29, %22 ]
  %50 = getelementptr inbounds nuw i8, ptr %0, i64 24
  %51 = load ptr, ptr %50, align 8, !tbaa !30
  %52 = getelementptr inbounds nuw i8, ptr %51, i64 8
  %53 = load i32, ptr %52, align 8, !tbaa !31
  %54 = tail call fastcc i32 @luaK_code(ptr noundef %0, i32 noundef %.sink, i32 noundef %53)
  br label %55

55:                                               ; preds = %.sink.split, %3
  %56 = load i32, ptr %2, align 8, !tbaa !51
  %57 = icmp eq i32 %56, 12
  br i1 %57, label %58, label %freeexp.exit25

58:                                               ; preds = %55
  %59 = getelementptr inbounds nuw i8, ptr %2, i64 8
  %60 = load i32, ptr %59, align 8, !tbaa !39
  %61 = and i32 %60, 256
  %.not.i.i23 = icmp eq i32 %61, 0
  br i1 %.not.i.i23, label %62, label %freeexp.exit25

62:                                               ; preds = %58
  %63 = getelementptr inbounds nuw i8, ptr %0, i64 74
  %64 = load i8, ptr %63, align 2, !tbaa !18
  %65 = zext i8 %64 to i32
  %.not3.i.i24 = icmp slt i32 %60, %65
  br i1 %.not3.i.i24, label %freeexp.exit25, label %66

66:                                               ; preds = %62
  %67 = getelementptr inbounds nuw i8, ptr %0, i64 60
  %68 = load i32, ptr %67, align 4, !tbaa !41
  %69 = add nsw i32 %68, -1
  store i32 %69, ptr %67, align 4, !tbaa !41
  br label %freeexp.exit25

freeexp.exit25:                                   ; preds = %66, %62, %58, %55, %freeexp.exit
  ret void
}